; Function Attrs: uwtable
define hidden noundef zeroext i1 @_ZTvn16_n32_NK5osgeo4proj3crs11TemporalCRS15_isEquivalentToEPKNS0_4util11IComparableENS4_9CriterionERKSt10shared_ptrINS0_2io15DatabaseContextEE(ptr noundef %0, ptr noundef %1, i32 noundef %2, ptr noundef nonnull align 8 dereferenceable(16) %3) unnamed_addr #7 align 2 {
  %5 = getelementptr inbounds i8, ptr %0, i64 -16
  %6 = load ptr, ptr %5, align 8
  %7 = getelementptr inbounds i8, ptr %6, i64 -32
  %8 = load i64, ptr %7, align 8
  %9 = getelementptr inbounds i8, ptr %5, i64 %8
  %10 = icmp eq ptr %1, null
  br i1 %10, label %_ZNK5osgeo4proj3crs11TemporalCRS15_isEquivalentToEPKNS0_4util11IComparableENS4_9CriterionERKSt10shared_ptrINS0_2io15DatabaseContextEE.exit, label %11

11:                                               ; preds = %4
  %12 = tail call ptr @__dynamic_cast(ptr nonnull %1, ptr nonnull @_ZTIN5osgeo4proj4util11IComparableE, ptr nonnull @_ZTIN5osgeo4proj3crs11TemporalCRSE, i64 -1) #37
  %13 = icmp eq ptr %12, null
  br i1 %13, label %_ZNK5osgeo4proj3crs11TemporalCRS15_isEquivalentToEPKNS0_4util11IComparableENS4_9CriterionERKSt10shared_ptrINS0_2io15DatabaseContextEE.exit, label %14

14:                                               ; preds = %11
  %15 = load ptr, ptr %9, align 8
  %16 = getelementptr i8, ptr %15, i64 -24
  %17 = load i64, ptr %16, align 8
  %18 = getelementptr inbounds i8, ptr %9, i64 %17
  %19 = tail call noundef zeroext i1 @_ZNK5osgeo4proj3crs9SingleCRS18baseIsEquivalentToEPKNS0_4util11IComparableENS4_9CriterionERKSt10shared_ptrINS0_2io15DatabaseContextEE(ptr noundef nonnull align 8 dereferenceable(72) %18, ptr noundef nonnull %1, i32 noundef %2, ptr noundef nonnull align 8 dereferenceable(16) %3)
  br label %_ZNK5osgeo4proj3crs11TemporalCRS15_isEquivalentToEPKNS0_4util11IComparableENS4_9CriterionERKSt10shared_ptrINS0_2io15DatabaseContextEE.exit

_ZNK5osgeo4proj3crs11TemporalCRS15_isEquivalentToEPKNS0_4util11IComparableENS4_9CriterionERKSt10shared_ptrINS0_2io15DatabaseContextEE.exit: ; preds = %4, %11, %14
  %20 = phi i1 [ false, %11 ], [ %19, %14 ], [ false, %4 ]
  ret i1 %20
}